; Function Attrs: mustprogress nofree norecurse nosync nounwind willreturn memory(read, inaccessiblemem: none) uwtable
define noundef ptr @_ZNK8facebook5velox4type6fbhive14HiveTypeParser11getMetadataENS2_9TokenTypeE(ptr nocapture noundef nonnull readonly align 8 dereferenceable(48) %this, i32 noundef %type) local_unnamed_addr #5 align 2 {
entry:
  %metadata_ = getelementptr inbounds i8, ptr %this, i64 8
  %conv.i = zext i32 %type to i64
  %sext = shl i64 %conv.i, 56
  %conv = ashr exact i64 %sext, 56
  %0 = load ptr, ptr %metadata_, align 8
  %add.ptr.i = getelementptr inbounds %"class.std::unique_ptr", ptr %0, i64 %conv
  %1 = load ptr, ptr %add.ptr.i, align 8
  ret ptr %1
}